(dp1
S'conv5_1'
p2
I462422016
sS'conv5_3'
p3
I462422016
sS'conv5_2'
p4
I462422016
sS'conv4_1'
p5
I924844032
sS'conv4_2'
p6
I1849688064
sS'conv4_3'
p7
I1849688064
sS'conv3_3'
p8
I1849688064
sS'conv3_2'
p9
I1849688064
sS'conv3_1'
p10
I924844032
sS'conv1_1'
p11
I86704128
sS'conv1_2'
p12
I1849688064
sS'conv2_2'
p13
I1849688064
sS'conv2_1'
p14
I924844032
s.