(dp1
S'res2b_branch2a'
p2
I51380224
sS'res4a_branch2b'
p3
I115605504
sS'res2b_branch2c'
p4
I51380224
sS'res2b_branch2b'
p5
I115605504
sS'res4c_branch2a'
p6
I51380224
sS'res4f_branch2c'
p7
I51380224
sS'res4f_branch2b'
p8
I115605504
sS'res4f_branch2a'
p9
I51380224
sS'res4c_branch2b'
p10
I115605504
sS'res4a_branch2a'
p11
I25690112
sS'res2a_branch2a'
p12
I12845056
sS'res2a_branch2b'
p13
I115605504
sS'res2a_branch2c'
p14
I51380224
sS'res4d_branch2a'
p15
I51380224
sS'res4d_branch2c'
p16
I51380224
sS'res4d_branch2b'
p17
I115605504
sS'res3a_branch1'
p18
I102760448
sS'res4e_branch2b'
p19
I115605504
sS'res4e_branch2c'
p20
I51380224
sS'res4e_branch2a'
p21
I51380224
sS'conv1'
p22
I118013952
sS'res4c_branch2c'
p23
I51380224
sS'res2c_branch2b'
p24
I115605504
sS'res2c_branch2c'
p25
I51380224
sS'res2c_branch2a'
p26
I51380224
sS'res5c_branch2a'
p27
I51380224
sS'res5c_branch2c'
p28
I51380224
sS'res5c_branch2b'
p29
I115605504
sS'res3a_branch2a'
p30
I25690112
sS'res4a_branch2c'
p31
I51380224
sS'res3a_branch2c'
p32
I51380224
sS'res3a_branch2b'
p33
I115605504
sS'res5a_branch2b'
p34
I115605504
sS'res3b_branch2a'
p35
I51380224
sS'res3b_branch2b'
p36
I115605504
sS'res3b_branch2c'
p37
I51380224
sS'res2a_branch1'
p38
I51380224
sS'res5b_branch2c'
p39
I51380224
sS'res5a_branch2c'
p40
I51380224
sS'res5a_branch1'
p41
I102760448
sS'res5a_branch2a'
p42
I25690112
sS'res3d_branch2b'
p43
I115605504
sS'res3d_branch2c'
p44
I51380224
sS'res3d_branch2a'
p45
I51380224
sS'res4a_branch1'
p46
I102760448
sS'res5b_branch2a'
p47
I51380224
sS'res5b_branch2b'
p48
I115605504
sS'res3c_branch2c'
p49
I51380224
sS'res3c_branch2b'
p50
I115605504
sS'res3c_branch2a'
p51
I51380224
sS'res4b_branch2c'
p52
I51380224
sS'res4b_branch2b'
p53
I115605504
sS'res4b_branch2a'
p54
I51380224
s.