(dp1
S'inception_b1_7x1'
p2
I29073408
sS'inception_a2_5x5'
p3
I55987200
sS'inception_c1_1x1_2'
p4
I14745600
sS'inception_a1_1x1'
p5
I8957952
sS'reduction_a_3x3_2'
p6
I40310784
sS'reduction_a_3x3_3'
p7
I14017536
sS'reduction_b_3x3'
p8
I19906560
sS'inception_a1_pool_proj'
p9
I4478976
sS'inception_c2_3x1_2'
p10
I15925248
sS'inception_a2_5x5_reduce'
p11
I8957952
sS'inception_c2_1x1_2'
p12
I23592960
sS'inception_a1_5x5'
p13
I55987200
sS'inception_b3_7x1_3'
p14
I30284800
sS'inception_b3_7x1_2'
p15
I30284800
sS'inception_a3_pool_proj'
p16
I13436928
sS'inception_c1_1x1'
p17
I8847360
sS'inception_c1_1x3'
p18
I15925248
sS'reduction_b_7x1'
p19
I43610112
sS'inception_b4_7x1_2'
p20
I43610112
sS'inception_b4_7x1_3'
p21
I43610112
sS'inception_b1_7x1_3'
p22
I19382272
sS'inception_b1_7x1_2'
p23
I19382272
sS'inception_b4_1x7_2'
p24
I43610112
sS'inception_b4_1x7_3'
p25
I43610112
sS'inception_c2_1x3_reduce'
p26
I28311552
sS'inception_b4_1x1_2'
p27
I24920064
sS'inception_a3_5x5_reduce'
p28
I10077696
sS'inception_a1_3x3_1'
p29
I40310784
sS'inception_a1_3x3_2'
p30
I60466176
sS'inception_c1_1x3_reduce'
p31
I17694720
sS'inception_c2_1x3_2'
p32
I15925248
sS'inception_b4_1x7'
p33
I43610112
sS'inception_b2_7x1_2'
p34
I30284800
sS'inception_b2_7x1_3'
p35
I30284800
sS'reduction_b_1x7_reduce'
p36
I24920064
sS'conv3_3x3_s1'
p37
I231211008
sS'inception_a3_3x3_reduce'
p38
I13436928
sS'inception_b4_1x1'
p39
I24920064
sS'inception_b2_1x7'
p40
I30284800
sS'inception_b2_1x1'
p41
I24920064
sS'inception_c2_3x1'
p42
I15925248
sS'inception_c2_3x3'
p43
I55738368
sS'inception_b3_1x7'
p44
I30284800
sS'inception_b3_1x1'
p45
I24920064
sS'inception_b1_1x1'
p46
I24920064
sS'inception_b1_1x7'
p47
I19382272
sS'inception_b4_1x7_reduce'
p48
I24920064
sS'inception_c2_3x3_reduce'
p49
I33030144
sS'inception_a2_3x3_2'
p50
I60466176
sS'inception_a2_3x3_1'
p51
I40310784
sS'inception_b3_7x1_reduce'
p52
I20766720
sS'inception_b2_7x1'
p53
I36341760
sS'inception_b4_7x1_reduce'
p54
I24920064
sS'conv4_3x3'
p55
I403107840
sS'inception_a2_3x3_reduce'
p56
I11943936
sS'reduction_b_3x3_2'
p57
I11943936
sS'inception_c1_3x1_2'
p58
I15925248
sS'inception_b2_1x1_2'
p59
I24920064
sS'inception_c1_3x3_reduce'
p60
I20643840
sS'inception_b4_7x1'
p61
I43610112
sS'inception_a2_1x1'
p62
I11943936
sS'inception_b3_1x1_2'
p63
I24920064
sS'reduction_b_3x3_reduce'
p64
I24920064
sS'inception_b3_1x7_3'
p65
I36341760
sS'inception_b3_1x7_2'
p66
I30284800
sS'inception_a2_pool_proj'
p67
I11943936
sS'inception_b2_1x7_reduce'
p68
I20766720
sS'conv4_3x3_reduce'
p69
I16056320
sS'inception_c1_3x3'
p70
I55738368
sS'inception_b3_7x1'
p71
I36341760
sS'inception_c1_3x1'
p72
I15925248
sS'inception_b2_7x1_reduce'
p73
I20766720
sS'inception_b2_1x7_2'
p74
I30284800
sS'inception_b2_1x7_3'
p75
I36341760
sS'reduction_b_1x7'
p76
I43610112
sS'inception_a3_5x5'
p77
I55987200
sS'inception_a1_3x3_reduce'
p78
I8957952
sS'reduction_a_3x3'
p79
I168210432
sS'inception_a3_1x1'
p80
I13436928
sS'reduction_a_3x3_2_reduce'
p81
I13436928
sS'inception_b1_1x7_3'
p82
I29073408
sS'inception_b1_1x7_2'
p83
I19382272
sS'inception_a1_5x5_reduce'
p84
I6718464
sS'inception_c1_1x3_2'
p85
I15925248
sS'inception_b3_1x7_reduce'
p86
I20766720
sS'inception_b1_1x1_2'
p87
I24920064
sS'inception_a3_3x3_2'
p88
I60466176
sS'inception_a3_3x3_1'
p89
I40310784
sS'conv1_3x3_s2'
p90
I11228544
sS'inception_b1_1x7_reduce'
p91
I16613376
sS'inception_c2_1x1'
p92
I14155776
sS'conv2_3x3_s1'
p93
I115605504
sS'inception_c2_1x3'
p94
I15925248
sS'inception_b1_7x1_reduce'
p95
I16613376
s.